target datalayout = "e-m:e-p270:32:32-p271:32:32-p272:64:64-i64:64-i128:128-f80:128-n8:16:32:64-S128"
target triple = "x86_64-unknown-linux-gnu"

%"class.node::crypto::ByteSource" = type { ptr, ptr, i64 }
%"class.v8::Local" = type { %"class.v8::LocalBase" }
%"class.v8::LocalBase" = type { %"class.v8::IndirectHandleBase" }
%"class.v8::IndirectHandleBase" = type { ptr }
%"class.node::crypto::ArrayBufferOrViewContents" = type { i8, i64, i64, ptr }

; Function Attrs: mustprogress nounwind uwtable
define linkonce_odr dso_local void @_ZN4node6crypto10ByteSourceC2EPKvPvm(ptr noundef nonnull align 8 dereferenceable(24) %this, ptr noundef %data, ptr noundef %allocated_data, i64 noundef %size) unnamed_addr #4 comdat align 2 {
entry:
  %this.addr = alloca ptr, align 8
  %data.addr = alloca ptr, align 8
  %allocated_data.addr = alloca ptr, align 8
  %size.addr = alloca i64, align 8
  store ptr %this, ptr %this.addr, align 8
  store ptr %data, ptr %data.addr, align 8
  store ptr %allocated_data, ptr %allocated_data.addr, align 8
  store i64 %size, ptr %size.addr, align 8
  %this1 = load ptr, ptr %this.addr, align 8
  %data_ = getelementptr inbounds %"class.node::crypto::ByteSource", ptr %this1, i32 0, i32 0
  %0 = load ptr, ptr %data.addr, align 8
  store ptr %0, ptr %data_, align 8
  %allocated_data_ = getelementptr inbounds %"class.node::crypto::ByteSource", ptr %this1, i32 0, i32 1
  %1 = load ptr, ptr %allocated_data.addr, align 8
  store ptr %1, ptr %allocated_data_, align 8
  %size_ = getelementptr inbounds %"class.node::crypto::ByteSource", ptr %this1, i32 0, i32 2
  %2 = load i64, ptr %size.addr, align 8
  store i64 %2, ptr %size_, align 8
  ret void
}

; Function Attrs: mustprogress nounwind uwtable
define dso_local void @_ZN4node6crypto10ByteSource7ForeignEPKvm(ptr noalias sret(%"class.node::crypto::ByteSource") align 8 %agg.result, ptr noundef %data, i64 noundef %size) #4 align 2 {
entry:
  %result.ptr = alloca ptr, align 8
  %data.addr = alloca ptr, align 8
  %size.addr = alloca i64, align 8
  store ptr %agg.result, ptr %result.ptr, align 8
  store ptr %data, ptr %data.addr, align 8
  store i64 %size, ptr %size.addr, align 8
  %0 = load ptr, ptr %data.addr, align 8
  %1 = load i64, ptr %size.addr, align 8
  call void @_ZN4node6crypto10ByteSourceC2EPKvPvm(ptr noundef nonnull align 8 dereferenceable(24) %agg.result, ptr noundef %0, ptr noundef null, i64 noundef %1)
  ret void
}

; Function Attrs: mustprogress nounwind uwtable
define linkonce_odr dso_local noundef i64 @_ZNK4node6crypto25ArrayBufferOrViewContentsIcE4sizeEv(ptr noundef nonnull align 8 dereferenceable(32) %this) #4 comdat align 2 {
entry:
  %this.addr = alloca ptr, align 8
  store ptr %this, ptr %this.addr, align 8
  %this1 = load ptr, ptr %this.addr, align 8
  %length_ = getelementptr inbounds %"class.node::crypto::ArrayBufferOrViewContents", ptr %this1, i32 0, i32 2
  %0 = load i64, ptr %length_, align 8
  ret i64 %0
}

; Function Attrs: mustprogress nounwind uwtable
define linkonce_odr dso_local noundef ptr @_ZNK4node6crypto25ArrayBufferOrViewContentsIcE4dataEv(ptr noundef nonnull align 8 dereferenceable(32) %this) #4 comdat align 2 {
entry:
  %retval = alloca ptr, align 8
  %this.addr = alloca ptr, align 8
  store ptr %this, ptr %this.addr, align 8
  %this1 = load ptr, ptr %this.addr, align 8
  %call = call noundef i64 @_ZNK4node6crypto25ArrayBufferOrViewContentsIcE4sizeEv(ptr noundef nonnull align 8 dereferenceable(32) %this1)
  %cmp = icmp eq i64 %call, 0
  br i1 %cmp, label %if.then, label %if.end

if.then:                                          ; preds = %entry
  %buf = getelementptr inbounds %"class.node::crypto::ArrayBufferOrViewContents", ptr %this1, i32 0, i32 0
  store ptr %buf, ptr %retval, align 8
  br label %return

if.end:                                           ; preds = %entry
  %data_ = getelementptr inbounds %"class.node::crypto::ArrayBufferOrViewContents", ptr %this1, i32 0, i32 3
  %0 = load ptr, ptr %data_, align 8
  %offset_ = getelementptr inbounds %"class.node::crypto::ArrayBufferOrViewContents", ptr %this1, i32 0, i32 1
  %1 = load i64, ptr %offset_, align 8
  %add.ptr = getelementptr inbounds i8, ptr %0, i64 %1
  store ptr %add.ptr, ptr %retval, align 8
  br label %return

return:                                           ; preds = %if.end, %if.then
  %2 = load ptr, ptr %retval, align 8
  ret ptr %2
}

; Function Attrs: mustprogress nounwind uwtable
define linkonce_odr dso_local void @_ZNK4node6crypto25ArrayBufferOrViewContentsIcE12ToByteSourceEv(ptr noalias sret(%"class.node::crypto::ByteSource") align 8 %agg.result, ptr noundef nonnull align 8 dereferenceable(32) %this) #4 comdat align 2 {
entry:
  %result.ptr = alloca ptr, align 8
  %this.addr = alloca ptr, align 8
  store ptr %agg.result, ptr %result.ptr, align 8
  store ptr %this, ptr %this.addr, align 8
  %this1 = load ptr, ptr %this.addr, align 8
  %call = call noundef ptr @_ZNK4node6crypto25ArrayBufferOrViewContentsIcE4dataEv(ptr noundef nonnull align 8 dereferenceable(32) %this1)
  %call2 = call noundef i64 @_ZNK4node6crypto25ArrayBufferOrViewContentsIcE4sizeEv(ptr noundef nonnull align 8 dereferenceable(32) %this1)
  call void @_ZN4node6crypto10ByteSource7ForeignEPKvm(ptr sret(%"class.node::crypto::ByteSource") align 8 %agg.result, ptr noundef %call, i64 noundef %call2)
  ret void
}

; Function Attrs: mustprogress nounwind uwtable
define dso_local void @_ZN4node6crypto10ByteSource10FromBufferEN2v85LocalINS2_5ValueEEEb(ptr noalias sret(%"class.node::crypto::ByteSource") align 8 %agg.result, ptr %buffer.coerce, i1 noundef zeroext %ntc) #4 align 2 {
entry:
  %result.ptr = alloca ptr, align 8
  %buffer = alloca %"class.v8::Local", align 8
  %ntc.addr = alloca i8, align 1
  %buf = alloca %"class.node::crypto::ArrayBufferOrViewContents", align 8
  %agg.tmp = alloca %"class.v8::Local", align 8
  store ptr %agg.result, ptr %result.ptr, align 8
  %coerce.dive = getelementptr inbounds %"class.v8::Local", ptr %buffer, i32 0, i32 0
  %coerce.dive1 = getelementptr inbounds %"class.v8::LocalBase", ptr %coerce.dive, i32 0, i32 0
  %coerce.dive2 = getelementptr inbounds %"class.v8::IndirectHandleBase", ptr %coerce.dive1, i32 0, i32 0
  store ptr %buffer.coerce, ptr %coerce.dive2, align 8
  %frombool = zext i1 %ntc to i8
  store i8 %frombool, ptr %ntc.addr, align 1
  call void @llvm.memcpy.p0.p0.i64(ptr align 8 %agg.tmp, ptr align 8 %buffer, i64 8, i1 false)
  %coerce.dive3 = getelementptr inbounds %"class.v8::Local", ptr %agg.tmp, i32 0, i32 0
  %coerce.dive4 = getelementptr inbounds %"class.v8::LocalBase", ptr %coerce.dive3, i32 0, i32 0
  %coerce.dive5 = getelementptr inbounds %"class.v8::IndirectHandleBase", ptr %coerce.dive4, i32 0, i32 0
  %0 = load ptr, ptr %coerce.dive5, align 8
  call void @_ZN4node6crypto25ArrayBufferOrViewContentsIcEC2EN2v85LocalINS3_5ValueEEE(ptr noundef nonnull align 8 dereferenceable(32) %buf, ptr %0)
  %1 = load i8, ptr %ntc.addr, align 1
  %tobool = trunc i8 %1 to i1
  br i1 %tobool, label %cond.true, label %cond.false

cond.true:                                        ; preds = %entry
  call void @_ZNK4node6crypto25ArrayBufferOrViewContentsIcE20ToNullTerminatedCopyEv(ptr sret(%"class.node::crypto::ByteSource") align 8 %agg.result, ptr noundef nonnull align 8 dereferenceable(32) %buf)
  br label %cond.end

cond.false:                                       ; preds = %entry
  call void @_ZNK4node6crypto25ArrayBufferOrViewContentsIcE12ToByteSourceEv(ptr sret(%"class.node::crypto::ByteSource") align 8 %agg.result, ptr noundef nonnull align 8 dereferenceable(32) %buf)
  br label %cond.end

cond.end:                                         ; preds = %cond.false, %cond.true
  ret void
}