; Function Attrs: mustprogress nounwind uwtable
define dso_local void @_ZN4node6crypto10ByteSource10FromBufferEN2v85LocalINS2_5ValueEEEb(ptr noalias sret(%"class.node::crypto::ByteSource") align 8 %agg.result, ptr %buffer.coerce, i1 noundef zeroext %ntc) local_unnamed_addr #4 align 2 {
entry:
  %buf = alloca %"class.node::crypto::ArrayBufferOrViewContents", align 8
  call void @_ZN4node6crypto25ArrayBufferOrViewContentsIcEC2EN2v85LocalINS3_5ValueEEE(ptr noundef nonnull align 8 dereferenceable(32) %buf, ptr %buffer.coerce)
  br i1 %ntc, label %cond.true, label %cond.false

cond.true:                                        ; preds = %entry
  call void @_ZNK4node6crypto25ArrayBufferOrViewContentsIcE20ToNullTerminatedCopyEv(ptr sret(%"class.node::crypto::ByteSource") align 8 %agg.result, ptr noundef nonnull align 8 dereferenceable(32) %buf)
  br label %cond.end

cond.false:                                       ; preds = %entry
  call void @llvm.experimental.noalias.scope.decl(metadata !33)
  %length_.i.i.i = getelementptr inbounds i8, ptr %buf, i64 16
  %0 = load i64, ptr %length_.i.i.i, align 8, !noalias !33
  %cmp.i.i = icmp eq i64 %0, 0
  %data_.i.i = getelementptr inbounds i8, ptr %buf, i64 24
  %1 = load ptr, ptr %data_.i.i, align 8, !noalias !33
  %offset_.i.i = getelementptr inbounds i8, ptr %buf, i64 8
  %2 = load i64, ptr %offset_.i.i, align 8, !noalias !33
  %add.ptr.i.i = getelementptr inbounds i8, ptr %1, i64 %2
  %retval.0.i.i = select i1 %cmp.i.i, ptr %buf, ptr %add.ptr.i.i
  store ptr %retval.0.i.i, ptr %agg.result, align 8, !alias.scope !36
  %allocated_data_.i.i.i = getelementptr inbounds i8, ptr %agg.result, i64 8
  store ptr null, ptr %allocated_data_.i.i.i, align 8, !alias.scope !36
  %size_.i.i.i = getelementptr inbounds i8, ptr %agg.result, i64 16
  store i64 %0, ptr %size_.i.i.i, align 8, !alias.scope !36
  br label %cond.end

cond.end:                                         ; preds = %cond.false, %cond.true
  ret void
}